target datalayout = "e-m:e-p270:32:32-p271:32:32-p272:64:64-i64:64-i128:128-f80:128-n8:16:32:64-S128"
target triple = "x86_64-pc-linux-gnu"

%struct.pkcs7_st = type { ptr, i64, i32, i32, ptr, %union.anon.1, %struct.PKCS7_CTX_st }
%union.anon.1 = type { ptr }
%struct.PKCS7_CTX_st = type { ptr, ptr }
%struct.pkcs7_encrypted_st = type { ptr, ptr }
%struct.pkcs7_enc_content_st = type { ptr, ptr, ptr, ptr, ptr }

@.str = private unnamed_addr constant [35 x i8] c"../openssl/crypto/pkcs12/p12_add.c\00", align 1
@__func__.PKCS12_unpack_p7encdata = private unnamed_addr constant [24 x i8] c"PKCS12_unpack_p7encdata\00", align 1

; Function Attrs: nounwind uwtable
define ptr @PKCS12_unpack_p7encdata(ptr noundef %0, ptr noundef %1, i32 noundef %2) #0 {
  %4 = alloca ptr, align 8
  %5 = alloca ptr, align 8
  %6 = alloca ptr, align 8
  %7 = alloca i32, align 4
  store ptr %0, ptr %5, align 8, !tbaa !24
  store ptr %1, ptr %6, align 8, !tbaa !32
  store i32 %2, ptr %7, align 4, !tbaa !9
  %8 = load ptr, ptr %5, align 8, !tbaa !24
  %9 = getelementptr inbounds nuw %struct.pkcs7_st, ptr %8, i32 0, i32 4
  %10 = load ptr, ptr %9, align 8, !tbaa !26
  %11 = call i32 @OBJ_obj2nid(ptr noundef %10)
  %12 = icmp eq i32 %11, 26
  br i1 %12, label %14, label %13

13:                                               ; preds = %3
  store ptr null, ptr %4, align 8
  br label %47

14:                                               ; preds = %3
  %15 = load ptr, ptr %5, align 8, !tbaa !24
  %16 = getelementptr inbounds nuw %struct.pkcs7_st, ptr %15, i32 0, i32 5
  %17 = load ptr, ptr %16, align 8, !tbaa !18
  %18 = icmp eq ptr %17, null
  br i1 %18, label %19, label %20

19:                                               ; preds = %14
  call void @ERR_new()
  call void @ERR_set_debug(ptr noundef @.str, i32 noundef 163, ptr noundef @__func__.PKCS12_unpack_p7encdata)
  call void (i32, i32, ptr, ...) @ERR_set_error(i32 noundef 35, i32 noundef 101, ptr noundef null)
  store ptr null, ptr %4, align 8
  br label %47

20:                                               ; preds = %14
  %21 = load ptr, ptr %5, align 8, !tbaa !24
  %22 = getelementptr inbounds nuw %struct.pkcs7_st, ptr %21, i32 0, i32 5
  %23 = load ptr, ptr %22, align 8, !tbaa !18
  %24 = getelementptr inbounds nuw %struct.pkcs7_encrypted_st, ptr %23, i32 0, i32 1
  %25 = load ptr, ptr %24, align 8, !tbaa !38
  %26 = getelementptr inbounds nuw %struct.pkcs7_enc_content_st, ptr %25, i32 0, i32 1
  %27 = load ptr, ptr %26, align 8, !tbaa !42
  %28 = call ptr @PKCS12_SAFEBAGS_it()
  %29 = load ptr, ptr %6, align 8, !tbaa !32
  %30 = load i32, ptr %7, align 4, !tbaa !9
  %31 = load ptr, ptr %5, align 8, !tbaa !24
  %32 = getelementptr inbounds nuw %struct.pkcs7_st, ptr %31, i32 0, i32 5
  %33 = load ptr, ptr %32, align 8, !tbaa !18
  %34 = getelementptr inbounds nuw %struct.pkcs7_encrypted_st, ptr %33, i32 0, i32 1
  %35 = load ptr, ptr %34, align 8, !tbaa !38
  %36 = getelementptr inbounds nuw %struct.pkcs7_enc_content_st, ptr %35, i32 0, i32 2
  %37 = load ptr, ptr %36, align 8, !tbaa !45
  %38 = load ptr, ptr %5, align 8, !tbaa !24
  %39 = getelementptr inbounds nuw %struct.pkcs7_st, ptr %38, i32 0, i32 6
  %40 = getelementptr inbounds nuw %struct.PKCS7_CTX_st, ptr %39, i32 0, i32 0
  %41 = load ptr, ptr %40, align 8, !tbaa !46
  %42 = load ptr, ptr %5, align 8, !tbaa !24
  %43 = getelementptr inbounds nuw %struct.pkcs7_st, ptr %42, i32 0, i32 6
  %44 = getelementptr inbounds nuw %struct.PKCS7_CTX_st, ptr %43, i32 0, i32 1
  %45 = load ptr, ptr %44, align 8, !tbaa !47
  %46 = call ptr @PKCS12_item_decrypt_d2i_ex(ptr noundef %27, ptr noundef %28, ptr noundef %29, i32 noundef %30, ptr noundef %37, i32 noundef 1, ptr noundef %41, ptr noundef %45)
  store ptr %46, ptr %4, align 8
  br label %47

47:                                               ; preds = %20, %19, %13
  %48 = load ptr, ptr %4, align 8
  ret ptr %48
}