; Function Attrs: nounwind uwtable
define ptr @PKCS12_unpack_p7encdata(ptr noundef readonly captures(none) %0, ptr noundef %1, i32 noundef %2) local_unnamed_addr #0 {
  %4 = getelementptr inbounds nuw i8, ptr %0, i64 24
  %5 = load ptr, ptr %4, align 8, !tbaa !13
  %6 = tail call i32 @OBJ_obj2nid(ptr noundef %5) #2
  %7 = icmp eq i32 %6, 26
  br i1 %7, label %8, label %29

8:                                                ; preds = %3
  %9 = getelementptr inbounds nuw i8, ptr %0, i64 32
  %10 = load ptr, ptr %9, align 8, !tbaa !9
  %11 = icmp eq ptr %10, null
  br i1 %11, label %12, label %13

12:                                               ; preds = %8
  tail call void @ERR_new() #2
  tail call void @ERR_set_debug(ptr noundef nonnull @.str, i32 noundef 163, ptr noundef nonnull @__func__.PKCS12_unpack_p7encdata) #2
  tail call void (i32, i32, ptr, ...) @ERR_set_error(i32 noundef 35, i32 noundef 101, ptr noundef null) #2
  br label %29

13:                                               ; preds = %8
  %14 = getelementptr inbounds nuw i8, ptr %10, i64 8
  %15 = load ptr, ptr %14, align 8, !tbaa !20
  %16 = getelementptr inbounds nuw i8, ptr %15, i64 8
  %17 = load ptr, ptr %16, align 8, !tbaa !24
  %18 = tail call ptr @PKCS12_SAFEBAGS_it() #2
  %19 = load ptr, ptr %9, align 8, !tbaa !9
  %20 = getelementptr inbounds nuw i8, ptr %19, i64 8
  %21 = load ptr, ptr %20, align 8, !tbaa !20
  %22 = getelementptr inbounds nuw i8, ptr %21, i64 16
  %23 = load ptr, ptr %22, align 8, !tbaa !29
  %24 = getelementptr inbounds nuw i8, ptr %0, i64 40
  %25 = load ptr, ptr %24, align 8, !tbaa !30
  %26 = getelementptr inbounds nuw i8, ptr %0, i64 48
  %27 = load ptr, ptr %26, align 8, !tbaa !31
  %28 = tail call ptr @PKCS12_item_decrypt_d2i_ex(ptr noundef %17, ptr noundef %18, ptr noundef %1, i32 noundef %2, ptr noundef %23, i32 noundef 1, ptr noundef %25, ptr noundef %27) #2
  br label %29

29:                                               ; preds = %3, %13, %12
  %.0 = phi ptr [ null, %12 ], [ %28, %13 ], [ null, %3 ]
  ret ptr %.0
}